target datalayout = "e-m:e-p270:32:32-p271:32:32-p272:64:64-i64:64-i128:128-f80:128-n8:16:32:64-S128"
target triple = "x86_64-pc-linux-gnu"

%struct.ThreadNode = type { ptr, i16, i32, ptr, i32, i32, %struct.StepRequest, %struct.InvokeRequest, ptr, %struct.CoLocatedEventInfo_, ptr, ptr, i64, ptr }
%struct.StepRequest = type { i32, i32, i8, i8, i8, i32, i32, ptr, ptr, i32, ptr, ptr, ptr, ptr }
%struct.InvokeRequest = type { i8, i8, i8, i8, i32, i8, i8, ptr, ptr, ptr, ptr, i32, ptr, %union.jvalue, ptr }
%union.jvalue = type { i64 }
%struct.CoLocatedEventInfo_ = type { i32, ptr, ptr, i64 }
%struct.BackendGlobalData = type <{ ptr, ptr, i8, i8, i8, i8, i8, i8, i8, i8, i8, [3 x i8], i32, ptr, ptr, ptr, ptr, ptr, ptr, ptr, ptr, ptr, ptr, ptr, ptr, ptr, i32, %struct.jvmtiCapabilities, i8, [3 x i8], %struct.jvmtiEventCallbacks, ptr, ptr, ptr, ptr, ptr, ptr, ptr, i32, [4 x i8], ptr, i64, i32, [4 x i8], ptr, i32, i32, i8, i8, [6 x i8] }>
%struct.jvmtiCapabilities = type { i64, i64 }
%struct.jvmtiEventCallbacks = type { ptr, ptr, ptr, ptr, ptr, ptr, ptr, ptr, ptr, ptr, ptr, ptr, ptr, ptr, ptr, ptr, ptr, ptr, ptr, ptr, ptr, ptr, ptr, ptr, ptr, ptr, ptr, ptr, ptr, ptr, ptr, ptr, ptr, ptr, ptr, ptr, ptr, ptr, ptr }
%struct.jvmtiInterface_1_ = type { ptr, ptr, ptr, ptr, ptr, ptr, ptr, ptr, ptr, ptr, ptr, ptr, ptr, ptr, ptr, ptr, ptr, ptr, ptr, ptr, ptr, ptr, ptr, ptr, ptr, ptr, ptr, ptr, ptr, ptr, ptr, ptr, ptr, ptr, ptr, ptr, ptr, ptr, ptr, ptr, ptr, ptr, ptr, ptr, ptr, ptr, ptr, ptr, ptr, ptr, ptr, ptr, ptr, ptr, ptr, ptr, ptr, ptr, ptr, ptr, ptr, ptr, ptr, ptr, ptr, ptr, ptr, ptr, ptr, ptr, ptr, ptr, ptr, ptr, ptr, ptr, ptr, ptr, ptr, ptr, ptr, ptr, ptr, ptr, ptr, ptr, ptr, ptr, ptr, ptr, ptr, ptr, ptr, ptr, ptr, ptr, ptr, ptr, ptr, ptr, ptr, ptr, ptr, ptr, ptr, ptr, ptr, ptr, ptr, ptr, ptr, ptr, ptr, ptr, ptr, ptr, ptr, ptr, ptr, ptr, ptr, ptr, ptr, ptr, ptr, ptr, ptr, ptr, ptr, ptr, ptr, ptr, ptr, ptr, ptr, ptr, ptr, ptr, ptr, ptr, ptr, ptr, ptr, ptr, ptr, ptr, ptr, ptr, ptr, ptr, ptr, ptr, ptr, ptr, ptr, ptr }

@threadLock = internal global ptr null, align 8
@.str.5 = private unnamed_addr constant [56 x i8] c"src/jdk.jdwp.agent/share/native/libjdwp/threadControl.c\00", align 1
@gdata = external global ptr, align 8
@.str.7 = private unnamed_addr constant [5 x i8] c"%s()\00", align 1
@.str.13 = private unnamed_addr constant [6 x i8] c"JVMTI\00", align 1
@.str.40 = private unnamed_addr constant [5 x i8] c"MISC\00", align 1
@.str.44 = private unnamed_addr constant [22 x i8] c"!node->suspendOnStart\00", align 1
@.str.45 = private unnamed_addr constant [18 x i8] c"thread=%p resumed\00", align 1
@.str.46 = private unnamed_addr constant [13 x i8] c"ResumeThread\00", align 1

; Function Attrs: nounwind uwtable
define internal i32 @resumeThreadByNode(ptr noundef %0) #0 {
  %2 = alloca i32, align 4
  %3 = alloca ptr, align 8
  %4 = alloca i32, align 4
  store ptr %0, ptr %3, align 8
  store i32 0, ptr %4, align 4
  %5 = load ptr, ptr %3, align 8
  %6 = getelementptr inbounds %struct.ThreadNode, ptr %5, i32 0, i32 1
  %7 = load i16, ptr %6, align 8
  %8 = lshr i16 %7, 2
  %9 = and i16 %8, 1
  %10 = zext i16 %9 to i32
  %11 = icmp ne i32 %10, 0
  br i1 %11, label %12, label %13

12:                                               ; preds = %1
  store i32 0, ptr %2, align 4
  br label %112

13:                                               ; preds = %1
  %14 = load ptr, ptr %3, align 8
  %15 = getelementptr inbounds %struct.ThreadNode, ptr %14, i32 0, i32 4
  %16 = load i32, ptr %15, align 8
  %17 = icmp sgt i32 %16, 0
  br i1 %17, label %18, label %110

18:                                               ; preds = %13
  %19 = load ptr, ptr %3, align 8
  %20 = getelementptr inbounds %struct.ThreadNode, ptr %19, i32 0, i32 4
  %21 = load i32, ptr %20, align 8
  %22 = add nsw i32 %21, -1
  store i32 %22, ptr %20, align 8
  %23 = load ptr, ptr @threadLock, align 8
  call void @debugMonitorNotifyAll(ptr noundef %23)
  %24 = load ptr, ptr %3, align 8
  %25 = getelementptr inbounds %struct.ThreadNode, ptr %24, i32 0, i32 4
  %26 = load i32, ptr %25, align 8
  %27 = icmp eq i32 %26, 0
  br i1 %27, label %28, label %109

28:                                               ; preds = %18
  %29 = load ptr, ptr %3, align 8
  %30 = getelementptr inbounds %struct.ThreadNode, ptr %29, i32 0, i32 1
  %31 = load i16, ptr %30, align 8
  %32 = and i16 %31, 1
  %33 = zext i16 %32 to i32
  %34 = icmp ne i32 %33, 0
  br i1 %34, label %35, label %109

35:                                               ; preds = %28
  br label %36

36:                                               ; preds = %35
  %37 = load ptr, ptr @gdata, align 8
  %38 = icmp ne ptr %37, null
  br i1 %38, label %39, label %54

39:                                               ; preds = %36
  %40 = load ptr, ptr @gdata, align 8
  %41 = getelementptr inbounds %struct.BackendGlobalData, ptr %40, i32 0, i32 3
  %42 = load i8, ptr %41, align 1
  %43 = zext i8 %42 to i32
  %44 = icmp ne i32 %43, 0
  br i1 %44, label %45, label %54

45:                                               ; preds = %39
  %46 = load ptr, ptr %3, align 8
  %47 = getelementptr inbounds %struct.ThreadNode, ptr %46, i32 0, i32 1
  %48 = load i16, ptr %47, align 8
  %49 = lshr i16 %48, 3
  %50 = and i16 %49, 1
  %51 = zext i16 %50 to i32
  %52 = icmp ne i32 %51, 0
  br i1 %52, label %53, label %54

53:                                               ; preds = %45
  call void @jdiAssertionFailed(ptr noundef @.str.5, i32 noundef 867, ptr noundef @.str.44)
  br label %54

54:                                               ; preds = %53, %45, %39, %36
  br label %55

55:                                               ; preds = %54
  %56 = load ptr, ptr @gdata, align 8
  %57 = getelementptr inbounds %struct.BackendGlobalData, ptr %56, i32 0, i32 38
  %58 = load i32, ptr %57, align 8
  %59 = and i32 %58, 8
  %60 = icmp ne i32 %59, 0
  br i1 %60, label %61, label %65

61:                                               ; preds = %55
  call void @log_message_begin(ptr noundef @.str.40, ptr noundef @.str.5, i32 noundef 868)
  %62 = load ptr, ptr %3, align 8
  %63 = getelementptr inbounds %struct.ThreadNode, ptr %62, i32 0, i32 0
  %64 = load ptr, ptr %63, align 8
  call void (ptr, ...) @log_message_end(ptr noundef @.str.45, ptr noundef %64)
  br label %66

65:                                               ; preds = %55
  br label %66

66:                                               ; preds = %65, %61
  %67 = load ptr, ptr @gdata, align 8
  %68 = getelementptr inbounds %struct.BackendGlobalData, ptr %67, i32 0, i32 38
  %69 = load i32, ptr %68, align 8
  %70 = and i32 %69, 4
  %71 = icmp ne i32 %70, 0
  br i1 %71, label %72, label %73

72:                                               ; preds = %66
  call void @log_message_begin(ptr noundef @.str.13, ptr noundef @.str.5, i32 noundef 869)
  call void (ptr, ...) @log_message_end(ptr noundef @.str.7, ptr noundef @.str.46)
  br label %74

73:                                               ; preds = %66
  br label %74

74:                                               ; preds = %73, %72
  %75 = load ptr, ptr @gdata, align 8
  %76 = getelementptr inbounds %struct.BackendGlobalData, ptr %75, i32 0, i32 0
  %77 = load ptr, ptr %76, align 8
  %78 = load ptr, ptr %77, align 8
  %79 = getelementptr inbounds %struct.jvmtiInterface_1_, ptr %78, i32 0, i32 5
  %80 = load ptr, ptr %79, align 8
  %81 = load ptr, ptr @gdata, align 8
  %82 = getelementptr inbounds %struct.BackendGlobalData, ptr %81, i32 0, i32 0
  %83 = load ptr, ptr %82, align 8
  %84 = load ptr, ptr %3, align 8
  %85 = getelementptr inbounds %struct.ThreadNode, ptr %84, i32 0, i32 0
  %86 = load ptr, ptr %85, align 8
  %87 = call i32 %80(ptr noundef %83, ptr noundef %86)
  store i32 %87, ptr %4, align 4
  %88 = load ptr, ptr %3, align 8
  %89 = getelementptr inbounds %struct.ThreadNode, ptr %88, i32 0, i32 12
  %90 = load i64, ptr %89, align 8
  %91 = add nsw i64 %90, 1
  store i64 %91, ptr %89, align 8
  %92 = load ptr, ptr %3, align 8
  %93 = getelementptr inbounds %struct.ThreadNode, ptr %92, i32 0, i32 1
  %94 = load i16, ptr %93, align 8
  %95 = and i16 %94, -2
  %96 = or i16 %95, 0
  store i16 %96, ptr %93, align 8
  %97 = load i32, ptr %4, align 4
  %98 = icmp eq i32 %97, 15
  br i1 %98, label %99, label %108

99:                                               ; preds = %74
  %100 = load ptr, ptr %3, align 8
  %101 = getelementptr inbounds %struct.ThreadNode, ptr %100, i32 0, i32 1
  %102 = load i16, ptr %101, align 8
  %103 = lshr i16 %102, 4
  %104 = and i16 %103, 1
  %105 = zext i16 %104 to i32
  %106 = icmp ne i32 %105, 0
  br i1 %106, label %108, label %107

107:                                              ; preds = %99
  store i32 0, ptr %4, align 4
  br label %108

108:                                              ; preds = %107, %99, %74
  br label %109

109:                                              ; preds = %108, %28, %18
  br label %110

110:                                              ; preds = %109, %13
  %111 = load i32, ptr %4, align 4
  store i32 %111, ptr %2, align 4
  br label %112

112:                                              ; preds = %110, %12
  %113 = load i32, ptr %2, align 4
  ret i32 %113
}